; Function Attrs: nounwind uwtable
define i32 @ossl_ffc_params_full_validate(ptr noundef %0, ptr noundef %1, i32 noundef %2, ptr noundef %3) local_unnamed_addr #0 {
  %5 = alloca i32, align 4
  call void @llvm.lifetime.start.p0(i64 4, ptr nonnull %5) #4
  store i32 0, ptr %5, align 4, !tbaa !3
  %6 = icmp eq ptr %1, null
  br i1 %6, label %ossl_ffc_params_FIPS186_2_validate.exit, label %7

7:                                                ; preds = %4
  %8 = icmp eq ptr %3, null
  %spec.store.select = select i1 %8, ptr %5, ptr %3
  %9 = getelementptr inbounds nuw i8, ptr %1, i64 32
  %10 = load ptr, ptr %9, align 8, !tbaa !16
  %.not = icmp eq ptr %10, null
  br i1 %.not, label %42, label %11

11:                                               ; preds = %7
  %12 = getelementptr inbounds nuw i8, ptr %1, i64 64
  %13 = load i32, ptr %12, align 8, !tbaa !14
  %14 = and i32 %13, 4
  %.not38 = icmp eq i32 %14, 0
  %15 = load ptr, ptr %1, align 8, !tbaa !7
  %16 = icmp eq ptr %15, null
  br i1 %.not38, label %30, label %17

17:                                               ; preds = %11
  br i1 %16, label %22, label %18

18:                                               ; preds = %17
  %19 = getelementptr inbounds nuw i8, ptr %1, i64 8
  %20 = load ptr, ptr %19, align 8, !tbaa !13
  %21 = icmp eq ptr %20, null
  br i1 %21, label %22, label %23

22:                                               ; preds = %18, %17
  store i32 2048, ptr %spec.store.select, align 4, !tbaa !3
  br label %ossl_ffc_params_FIPS186_2_validate.exit

23:                                               ; preds = %18
  %24 = tail call i32 @BN_num_bits(ptr noundef nonnull %15) #4
  %25 = sext i32 %24 to i64
  %26 = load ptr, ptr %19, align 8, !tbaa !13
  %27 = tail call i32 @BN_num_bits(ptr noundef %26) #4
  %28 = sext i32 %27 to i64
  %29 = call i32 @ossl_ffc_params_FIPS186_2_gen_verify(ptr noundef %0, ptr noundef nonnull %1, i32 noundef 0, i32 noundef %2, i64 noundef %25, i64 noundef %28, ptr noundef nonnull %spec.store.select, ptr noundef null) #4
  br label %ossl_ffc_params_FIPS186_2_validate.exit

30:                                               ; preds = %11
  br i1 %16, label %ossl_ffc_params_FIPS186_2_validate.exit, label %31

31:                                               ; preds = %30
  %32 = getelementptr inbounds nuw i8, ptr %1, i64 8
  %33 = load ptr, ptr %32, align 8, !tbaa !13
  %34 = icmp eq ptr %33, null
  br i1 %34, label %ossl_ffc_params_FIPS186_2_validate.exit, label %35

35:                                               ; preds = %31
  %36 = tail call i32 @BN_num_bits(ptr noundef nonnull %15) #4
  %37 = sext i32 %36 to i64
  %38 = load ptr, ptr %32, align 8, !tbaa !13
  %39 = tail call i32 @BN_num_bits(ptr noundef %38) #4
  %40 = sext i32 %39 to i64
  %41 = call i32 @ossl_ffc_params_FIPS186_4_gen_verify(ptr noundef %0, ptr noundef nonnull %1, i32 noundef 0, i32 noundef %2, i64 noundef %37, i64 noundef %40, ptr noundef nonnull %spec.store.select, ptr noundef null) #4
  br label %ossl_ffc_params_FIPS186_2_validate.exit

42:                                               ; preds = %7
  %43 = call i32 @ossl_ffc_params_simple_validate(ptr noundef %0, ptr noundef nonnull %1, i32 noundef %2, ptr noundef nonnull %spec.store.select)
  %.not33 = icmp eq i32 %43, 0
  br i1 %.not33, label %ossl_ffc_params_FIPS186_2_validate.exit, label %44

44:                                               ; preds = %42
  %45 = call ptr @BN_CTX_new_ex(ptr noundef %0) #4
  %.not37 = icmp eq ptr %45, null
  br i1 %.not37, label %ossl_ffc_params_FIPS186_2_validate.exit, label %46

46:                                               ; preds = %44
  %47 = getelementptr inbounds nuw i8, ptr %1, i64 8
  %48 = load ptr, ptr %47, align 8, !tbaa !13
  %49 = call i32 @BN_check_prime(ptr noundef %48, ptr noundef nonnull %45, ptr noundef null) #4
  %.not34.not = icmp eq i32 %49, 1
  br i1 %.not34.not, label %.critedge, label %.sink.split

.critedge:                                        ; preds = %46
  %50 = load ptr, ptr %1, align 8, !tbaa !7
  %51 = call i32 @BN_check_prime(ptr noundef %50, ptr noundef nonnull %45, ptr noundef null) #4
  %.not36 = icmp eq i32 %51, 1
  br i1 %.not36, label %52, label %.sink.split

.sink.split:                                      ; preds = %.critedge, %46
  %.sink40 = phi i32 [ 172, %46 ], [ 178, %.critedge ]
  %.sink = phi i32 [ 113, %46 ], [ 115, %.critedge ]
  call void @ERR_new() #4
  call void @ERR_set_debug(ptr noundef nonnull @.str, i32 noundef %.sink40, ptr noundef nonnull @__func__.ossl_ffc_params_full_validate) #4
  call void (i32, i32, ptr, ...) @ERR_set_error(i32 noundef 10, i32 noundef %.sink, ptr noundef null) #4
  br label %52

52:                                               ; preds = %.sink.split, %.critedge
  %.3 = phi i32 [ 1, %.critedge ], [ 0, %.sink.split ]
  call void @BN_CTX_free(ptr noundef nonnull %45) #4
  br label %ossl_ffc_params_FIPS186_2_validate.exit

ossl_ffc_params_FIPS186_2_validate.exit:          ; preds = %52, %44, %35, %31, %30, %23, %22, %42, %4
  %.0 = phi i32 [ 0, %4 ], [ 0, %42 ], [ 0, %22 ], [ %29, %23 ], [ %41, %35 ], [ 0, %31 ], [ 0, %30 ], [ %.3, %52 ], [ 0, %44 ]
  call void @llvm.lifetime.end.p0(i64 4, ptr nonnull %5) #4
  ret i32 %.0
}